target datalayout = "e-m:e-p270:32:32-p271:32:32-p272:64:64-i64:64-i128:128-f80:128-n8:16:32:64-S128"
target triple = "x86_64-pc-linux-gnu"

%"class.cvc5::internal::theory::arith::linear::DioSolver" = type { %"class.cvc5::internal::EnvObj", %"class.std::vector", %"class.cvc5::context::CDO", %"class.cvc5::context::CDList", %"class.cvc5::context::CDO", %"class.std::unordered_map", %"class.cvc5::context::CDList.10", %"class.cvc5::context::CDList.17", %"class.std::deque", %"class.cvc5::context::CDList.27", %"class.cvc5::context::CDO", %"class.cvc5::context::CDMaybe", %"class.cvc5::context::CDO.32", %"class.cvc5::context::CDO.33", %"class.cvc5::context::CDO", %"class.cvc5::context::CDO", %"class.cvc5::context::CDQueue", %"class.cvc5::internal::theory::arith::linear::DioSolver::Statistics" }
%"class.cvc5::internal::EnvObj" = type { ptr, ptr }
%"class.std::vector" = type { %"struct.std::_Vector_base" }
%"struct.std::_Vector_base" = type { %"struct.std::_Vector_base<cvc5::internal::theory::arith::linear::Variable, std::allocator<cvc5::internal::theory::arith::linear::Variable>>::_Vector_impl" }
%"struct.std::_Vector_base<cvc5::internal::theory::arith::linear::Variable, std::allocator<cvc5::internal::theory::arith::linear::Variable>>::_Vector_impl" = type { %"struct.std::_Vector_base<cvc5::internal::theory::arith::linear::Variable, std::allocator<cvc5::internal::theory::arith::linear::Variable>>::_Vector_impl_data" }
%"struct.std::_Vector_base<cvc5::internal::theory::arith::linear::Variable, std::allocator<cvc5::internal::theory::arith::linear::Variable>>::_Vector_impl_data" = type { ptr, ptr, ptr }
%"class.cvc5::context::CDList" = type <{ %"class.cvc5::context::ContextObj", %"class.std::vector.0", i64, i8, [7 x i8] }>
%"class.cvc5::context::ContextObj" = type { ptr, ptr, ptr, ptr, ptr }
%"class.std::vector.0" = type { %"struct.std::_Vector_base.1" }
%"struct.std::_Vector_base.1" = type { %"struct.std::_Vector_base<cvc5::internal::theory::arith::linear::DioSolver::InputConstraint, std::allocator<cvc5::internal::theory::arith::linear::DioSolver::InputConstraint>>::_Vector_impl" }
%"struct.std::_Vector_base<cvc5::internal::theory::arith::linear::DioSolver::InputConstraint, std::allocator<cvc5::internal::theory::arith::linear::DioSolver::InputConstraint>>::_Vector_impl" = type { %"struct.std::_Vector_base<cvc5::internal::theory::arith::linear::DioSolver::InputConstraint, std::allocator<cvc5::internal::theory::arith::linear::DioSolver::InputConstraint>>::_Vector_impl_data" }
%"struct.std::_Vector_base<cvc5::internal::theory::arith::linear::DioSolver::InputConstraint, std::allocator<cvc5::internal::theory::arith::linear::DioSolver::InputConstraint>>::_Vector_impl_data" = type { ptr, ptr, ptr }
%"class.std::unordered_map" = type { %"class.std::_Hashtable" }
%"class.std::_Hashtable" = type { ptr, i64, %"struct.std::__detail::_Hash_node_base", i64, %"struct.std::__detail::_Prime_rehash_policy", ptr }
%"struct.std::__detail::_Hash_node_base" = type { ptr }
%"struct.std::__detail::_Prime_rehash_policy" = type { float, i64 }
%"class.cvc5::context::CDList.10" = type <{ %"class.cvc5::context::ContextObj", %"class.std::vector.11", i64, i8, [7 x i8] }>
%"class.std::vector.11" = type { %"struct.std::_Vector_base.12" }
%"struct.std::_Vector_base.12" = type { %"struct.std::_Vector_base<cvc5::internal::theory::arith::linear::DioSolver::Constraint, std::allocator<cvc5::internal::theory::arith::linear::DioSolver::Constraint>>::_Vector_impl" }
%"struct.std::_Vector_base<cvc5::internal::theory::arith::linear::DioSolver::Constraint, std::allocator<cvc5::internal::theory::arith::linear::DioSolver::Constraint>>::_Vector_impl" = type { %"struct.std::_Vector_base<cvc5::internal::theory::arith::linear::DioSolver::Constraint, std::allocator<cvc5::internal::theory::arith::linear::DioSolver::Constraint>>::_Vector_impl_data" }
%"struct.std::_Vector_base<cvc5::internal::theory::arith::linear::DioSolver::Constraint, std::allocator<cvc5::internal::theory::arith::linear::DioSolver::Constraint>>::_Vector_impl_data" = type { ptr, ptr, ptr }
%"class.cvc5::context::CDList.17" = type <{ %"class.cvc5::context::ContextObj", %"class.std::vector.18", i64, i8, [7 x i8] }>
%"class.std::vector.18" = type { %"struct.std::_Vector_base.19" }
%"struct.std::_Vector_base.19" = type { %"struct.std::_Vector_base<cvc5::internal::theory::arith::linear::DioSolver::Substitution, std::allocator<cvc5::internal::theory::arith::linear::DioSolver::Substitution>>::_Vector_impl" }
%"struct.std::_Vector_base<cvc5::internal::theory::arith::linear::DioSolver::Substitution, std::allocator<cvc5::internal::theory::arith::linear::DioSolver::Substitution>>::_Vector_impl" = type { %"struct.std::_Vector_base<cvc5::internal::theory::arith::linear::DioSolver::Substitution, std::allocator<cvc5::internal::theory::arith::linear::DioSolver::Substitution>>::_Vector_impl_data" }
%"struct.std::_Vector_base<cvc5::internal::theory::arith::linear::DioSolver::Substitution, std::allocator<cvc5::internal::theory::arith::linear::DioSolver::Substitution>>::_Vector_impl_data" = type { ptr, ptr, ptr }
%"class.std::deque" = type { %"class.std::_Deque_base" }
%"class.std::_Deque_base" = type { %"struct.std::_Deque_base<unsigned long, std::allocator<unsigned long>>::_Deque_impl" }
%"struct.std::_Deque_base<unsigned long, std::allocator<unsigned long>>::_Deque_impl" = type { %"struct.std::_Deque_base<unsigned long, std::allocator<unsigned long>>::_Deque_impl_data" }
%"struct.std::_Deque_base<unsigned long, std::allocator<unsigned long>>::_Deque_impl_data" = type { ptr, i64, %"struct.std::_Deque_iterator", %"struct.std::_Deque_iterator" }
%"struct.std::_Deque_iterator" = type { ptr, ptr, ptr, ptr }
%"class.cvc5::context::CDList.27" = type <{ %"class.cvc5::context::ContextObj", %"class.std::vector.28", i64, i8, [7 x i8] }>
%"class.std::vector.28" = type { %"struct.std::_Vector_base.29" }
%"struct.std::_Vector_base.29" = type { %"struct.std::_Vector_base<unsigned long, std::allocator<unsigned long>>::_Vector_impl" }
%"struct.std::_Vector_base<unsigned long, std::allocator<unsigned long>>::_Vector_impl" = type { %"struct.std::_Vector_base<unsigned long, std::allocator<unsigned long>>::_Vector_impl_data" }
%"struct.std::_Vector_base<unsigned long, std::allocator<unsigned long>>::_Vector_impl_data" = type { ptr, ptr, ptr }
%"class.cvc5::context::CDMaybe" = type { %"class.cvc5::context::CDO.31" }
%"class.cvc5::context::CDO.31" = type { %"class.cvc5::context::ContextObj", %"struct.std::pair" }
%"struct.std::pair" = type { i8, i64 }
%"class.cvc5::context::CDO.32" = type <{ %"class.cvc5::context::ContextObj", i32, [4 x i8] }>
%"class.cvc5::context::CDO.33" = type <{ %"class.cvc5::context::ContextObj", i8, [7 x i8] }>
%"class.cvc5::context::CDO" = type { %"class.cvc5::context::ContextObj", i64 }
%"class.cvc5::context::CDQueue" = type { %"class.cvc5::context::CDList.base.30", i64, i64 }
%"class.cvc5::context::CDList.base.30" = type <{ %"class.cvc5::context::ContextObj", %"class.std::vector.28", i64, i8, i8 }>
%"class.cvc5::internal::theory::arith::linear::DioSolver::Statistics" = type { %"class.cvc5::internal::IntStat", %"class.cvc5::internal::IntStat", %"class.cvc5::internal::IntStat", %"class.cvc5::internal::IntStat", %"class.cvc5::internal::TimerStat", %"class.cvc5::internal::TimerStat" }
%"class.cvc5::internal::IntStat" = type { %"class.cvc5::internal::ValueStat" }
%"class.cvc5::internal::ValueStat" = type { ptr }
%"class.cvc5::internal::TimerStat" = type { ptr }

; Function Attrs: mustprogress nounwind uwtable
define linkonce_odr hidden noundef i64 @_ZNKSt6vectorIN4cvc58internal6theory5arith6linear9DioSolver12SubstitutionESaIS6_EE4sizeEv(ptr noundef nonnull align 8 dereferenceable(24) %0) #5 comdat align 2 {
  %2 = alloca ptr, align 8
  store ptr %0, ptr %2, align 8, !tbaa !873
  %3 = load ptr, ptr %2, align 8
  %4 = getelementptr inbounds nuw %"struct.std::_Vector_base.19", ptr %3, i32 0, i32 0
  %5 = getelementptr inbounds nuw %"struct.std::_Vector_base<cvc5::internal::theory::arith::linear::DioSolver::Substitution, std::allocator<cvc5::internal::theory::arith::linear::DioSolver::Substitution>>::_Vector_impl_data", ptr %4, i32 0, i32 1
  %6 = load ptr, ptr %5, align 8, !tbaa !884
  %7 = getelementptr inbounds nuw %"struct.std::_Vector_base.19", ptr %3, i32 0, i32 0
  %8 = getelementptr inbounds nuw %"struct.std::_Vector_base<cvc5::internal::theory::arith::linear::DioSolver::Substitution, std::allocator<cvc5::internal::theory::arith::linear::DioSolver::Substitution>>::_Vector_impl_data", ptr %7, i32 0, i32 0
  %9 = load ptr, ptr %8, align 8, !tbaa !883
  %10 = ptrtoint ptr %6 to i64
  %11 = ptrtoint ptr %9 to i64
  %12 = sub i64 %10, %11
  %13 = sdiv exact i64 %12, 24
  ret i64 %13
}

; Function Attrs: mustprogress nounwind uwtable
define linkonce_odr hidden noundef i64 @_ZNK4cvc57context6CDListINS_8internal6theory5arith6linear9DioSolver12SubstitutionENS0_14DefaultCleanUpIS7_EESaIS7_EE4sizeEv(ptr noundef nonnull align 8 dereferenceable(74) %0) #5 comdat align 2 {
  %2 = alloca ptr, align 8
  store ptr %0, ptr %2, align 8, !tbaa !62
  %3 = load ptr, ptr %2, align 8
  %4 = getelementptr inbounds nuw %"class.cvc5::context::CDList.17", ptr %3, i32 0, i32 1
  %5 = call noundef i64 @_ZNKSt6vectorIN4cvc58internal6theory5arith6linear9DioSolver12SubstitutionESaIS6_EE4sizeEv(ptr noundef nonnull align 8 dereferenceable(24) %4) #3
  ret i64 %5
}

; Function Attrs: mustprogress uwtable
define hidden noundef zeroext i1 @_ZN4cvc58internal6theory5arith6linear9DioSolver25debugAnySubstitionAppliesEm(ptr noundef nonnull align 8 dereferenceable(1032) %0, i64 noundef %1) #4 align 2 {
  %3 = alloca i1, align 1
  %4 = alloca ptr, align 8
  %5 = alloca i64, align 8
  %6 = alloca i64, align 8
  %7 = alloca i64, align 8
  %8 = alloca i32, align 4
  store ptr %0, ptr %4, align 8, !tbaa !3
  store i64 %1, ptr %5, align 8, !tbaa !12
  %9 = load ptr, ptr %4, align 8
  call void @llvm.lifetime.start.p0(i64 8, ptr %6) #3
  store i64 0, ptr %6, align 8, !tbaa !12
  call void @llvm.lifetime.start.p0(i64 8, ptr %7) #3
  %10 = getelementptr inbounds nuw %"class.cvc5::internal::theory::arith::linear::DioSolver", ptr %9, i32 0, i32 7
  %11 = call noundef i64 @_ZNK4cvc57context6CDListINS_8internal6theory5arith6linear9DioSolver12SubstitutionENS0_14DefaultCleanUpIS7_EESaIS7_EE4sizeEv(ptr noundef nonnull align 8 dereferenceable(74) %10)
  store i64 %11, ptr %7, align 8, !tbaa !12
  br label %12

12:                                               ; preds = %23, %2
  %13 = load i64, ptr %6, align 8, !tbaa !12
  %14 = load i64, ptr %7, align 8, !tbaa !12
  %15 = icmp ult i64 %13, %14
  br i1 %15, label %17, label %16

16:                                               ; preds = %12
  store i32 2, ptr %8, align 4
  br label %26

17:                                               ; preds = %12
  %18 = load i64, ptr %6, align 8, !tbaa !12
  %19 = load i64, ptr %5, align 8, !tbaa !12
  %20 = call noundef zeroext i1 @_ZN4cvc58internal6theory5arith6linear9DioSolver24debugSubstitutionAppliesEmm(ptr noundef nonnull align 8 dereferenceable(1032) %9, i64 noundef %18, i64 noundef %19)
  br i1 %20, label %21, label %22

21:                                               ; preds = %17
  store i1 true, ptr %3, align 1
  store i32 1, ptr %8, align 4
  br label %26

22:                                               ; preds = %17
  br label %23

23:                                               ; preds = %22
  %24 = load i64, ptr %6, align 8, !tbaa !12
  %25 = add i64 %24, 1
  store i64 %25, ptr %6, align 8, !tbaa !12
  br label %12, !llvm.loop !154

26:                                               ; preds = %21, %16
  call void @llvm.lifetime.end.p0(i64 8, ptr %7) #3
  call void @llvm.lifetime.end.p0(i64 8, ptr %6) #3
  %27 = load i32, ptr %8, align 4
  switch i32 %27, label %31 [
    i32 2, label %28
    i32 1, label %29
  ]

28:                                               ; preds = %26
  store i1 false, ptr %3, align 1
  br label %29

29:                                               ; preds = %28, %26
  %30 = load i1, ptr %3, align 1
  ret i1 %30

31:                                               ; preds = %26
  unreachable
}