; Function Attrs: mustprogress uwtable
define hidden noundef zeroext i1 @_ZN4cvc58internal6theory5arith6linear9DioSolver25debugAnySubstitionAppliesEm(ptr noundef nonnull readonly align 8 captures(none) dereferenceable(1032) %0, i64 noundef %1) local_unnamed_addr #3 align 2 {
  %3 = getelementptr inbounds nuw i8, ptr %0, i64 392
  %4 = getelementptr inbounds nuw i8, ptr %0, i64 400
  %5 = load ptr, ptr %4, align 8, !tbaa !93
  %6 = load ptr, ptr %3, align 8, !tbaa !96
  %.not9.not = icmp eq ptr %5, %6
  br i1 %.not9.not, label %._crit_edge, label %.lr.ph.preheader

.lr.ph.preheader:                                 ; preds = %2
  %7 = ptrtoint ptr %5 to i64
  %8 = ptrtoint ptr %6 to i64
  %9 = sub i64 %7, %8
  %10 = sdiv exact i64 %9, 24
  %umax = tail call i64 @llvm.umax.i64(i64 %10, i64 1)
  br label %.lr.ph

.lr.ph:                                           ; preds = %.lr.ph, %.lr.ph.preheader
  %.0810 = phi i64 [ 0, %.lr.ph.preheader ], [ %12, %.lr.ph ]
  %11 = tail call noundef zeroext i1 @_ZN4cvc58internal6theory5arith6linear9DioSolver24debugSubstitutionAppliesEmm(ptr noundef nonnull align 8 dereferenceable(1032) %0, i64 noundef %.0810, i64 noundef %1)
  %12 = add nuw i64 %.0810, 1
  %exitcond.not = icmp eq i64 %12, %umax
  %or.cond = select i1 %11, i1 true, i1 %exitcond.not
  br i1 %or.cond, label %._crit_edge, label %.lr.ph, !llvm.loop !127

._crit_edge:                                      ; preds = %.lr.ph, %2
  %.not.lcssa = phi i1 [ false, %2 ], [ %11, %.lr.ph ]
  ret i1 %.not.lcssa
}